target datalayout = "e-m:e-p270:32:32-p271:32:32-p272:64:64-i64:64-i128:128-f80:128-n8:16:32:64-S128"
target triple = "x86_64-pc-linux-gnu"

%"class.cv::TermCriteria" = type { i32, i32, double }

; Function Attrs: mustprogress nounwind uwtable
define linkonce_odr hidden void @_ZN2cv12TermCriteriaC2Eiid(ptr noundef nonnull align 8 dereferenceable(16) %0, i32 noundef %1, i32 noundef %2, double noundef %3) unnamed_addr #7 comdat align 2 {
  %5 = alloca ptr, align 8
  %6 = alloca i32, align 4
  %7 = alloca i32, align 4
  %8 = alloca double, align 8
  store ptr %0, ptr %5, align 8
  store i32 %1, ptr %6, align 4
  store i32 %2, ptr %7, align 4
  store double %3, ptr %8, align 8
  %9 = load ptr, ptr %5, align 8
  %10 = getelementptr inbounds %"class.cv::TermCriteria", ptr %9, i32 0, i32 0
  %11 = load i32, ptr %6, align 4
  store i32 %11, ptr %10, align 8
  %12 = getelementptr inbounds %"class.cv::TermCriteria", ptr %9, i32 0, i32 1
  %13 = load i32, ptr %7, align 4
  store i32 %13, ptr %12, align 4
  %14 = getelementptr inbounds %"class.cv::TermCriteria", ptr %9, i32 0, i32 2
  %15 = load double, ptr %8, align 8
  store double %15, ptr %14, align 8
  ret void
}

; Function Attrs: mustprogress uwtable
define void @_ZN2cv15undistortPointsERKNS_11_InputArrayERKNS_12_OutputArrayES2_S2_S2_S2_(ptr noundef nonnull align 8 dereferenceable(24) %0, ptr noundef nonnull align 8 dereferenceable(24) %1, ptr noundef nonnull align 8 dereferenceable(24) %2, ptr noundef nonnull align 8 dereferenceable(24) %3, ptr noundef nonnull align 8 dereferenceable(24) %4, ptr noundef nonnull align 8 dereferenceable(24) %5) #4 {
  %7 = alloca ptr, align 8
  %8 = alloca ptr, align 8
  %9 = alloca ptr, align 8
  %10 = alloca ptr, align 8
  %11 = alloca ptr, align 8
  %12 = alloca ptr, align 8
  %13 = alloca %"class.cv::TermCriteria", align 8
  store ptr %0, ptr %7, align 8
  store ptr %1, ptr %8, align 8
  store ptr %2, ptr %9, align 8
  store ptr %3, ptr %10, align 8
  store ptr %4, ptr %11, align 8
  store ptr %5, ptr %12, align 8
  %14 = load ptr, ptr %7, align 8
  %15 = load ptr, ptr %8, align 8
  %16 = load ptr, ptr %9, align 8
  %17 = load ptr, ptr %10, align 8
  %18 = load ptr, ptr %11, align 8
  %19 = load ptr, ptr %12, align 8
  call void @_ZN2cv12TermCriteriaC2Eiid(ptr noundef nonnull align 8 dereferenceable(16) %13, i32 noundef 1, i32 noundef 5, double noundef 1.000000e-02)
  call void @_ZN2cv15undistortPointsERKNS_11_InputArrayERKNS_12_OutputArrayES2_S2_S2_S2_NS_12TermCriteriaE(ptr noundef nonnull align 8 dereferenceable(24) %14, ptr noundef nonnull align 8 dereferenceable(24) %15, ptr noundef nonnull align 8 dereferenceable(24) %16, ptr noundef nonnull align 8 dereferenceable(24) %17, ptr noundef nonnull align 8 dereferenceable(24) %18, ptr noundef nonnull align 8 dereferenceable(24) %19, ptr noundef byval(%"class.cv::TermCriteria") align 8 %13)
  ret void
}