; Function Attrs: mustprogress uwtable
define void @_ZN2cv15undistortPointsERKNS_11_InputArrayERKNS_12_OutputArrayES2_S2_S2_S2_(ptr noundef nonnull align 8 dereferenceable(24) %0, ptr noundef nonnull align 8 dereferenceable(24) %1, ptr noundef nonnull align 8 dereferenceable(24) %2, ptr noundef nonnull align 8 dereferenceable(24) %3, ptr noundef nonnull align 8 dereferenceable(24) %4, ptr noundef nonnull align 8 dereferenceable(24) %5) local_unnamed_addr #3 {
  %7 = alloca %"class.cv::TermCriteria", align 8
  store i32 1, ptr %7, align 8
  %8 = getelementptr inbounds i8, ptr %7, i64 4
  store i32 5, ptr %8, align 4
  %9 = getelementptr inbounds i8, ptr %7, i64 8
  store double 1.000000e-02, ptr %9, align 8
  tail call void @_ZN2cv15undistortPointsERKNS_11_InputArrayERKNS_12_OutputArrayES2_S2_S2_S2_NS_12TermCriteriaE(ptr noundef nonnull align 8 dereferenceable(24) %0, ptr noundef nonnull align 8 dereferenceable(24) %1, ptr noundef nonnull align 8 dereferenceable(24) %2, ptr noundef nonnull align 8 dereferenceable(24) %3, ptr noundef nonnull align 8 dereferenceable(24) %4, ptr noundef nonnull align 8 dereferenceable(24) %5, ptr noundef nonnull byval(%"class.cv::TermCriteria") align 8 %7)
  ret void
}